; Function Attrs: nounwind uwtable
define void @_ZTv0_n24_N5arrow2io20TransformInputStreamD1Ev(ptr noundef %this) unnamed_addr #5 align 2 personality ptr @__gxx_personality_v0 {
entry:
  %0 = load ptr, ptr %this, align 8
  %1 = getelementptr inbounds i8, ptr %0, i64 -24
  %2 = load i64, ptr %1, align 8
  %3 = getelementptr inbounds i8, ptr %this, i64 %2
  %add.ptr.i.i = getelementptr inbounds i8, ptr %3, i64 16
  store ptr getelementptr inbounds ({ [21 x ptr], [15 x ptr] }, ptr @_ZTVN5arrow2io20TransformInputStreamE, i64 0, i32 1, i64 8), ptr %add.ptr.i.i, align 8
  store ptr getelementptr inbounds ({ [21 x ptr], [15 x ptr] }, ptr @_ZTVN5arrow2io20TransformInputStreamE, i64 0, i32 0, i64 8), ptr %3, align 8
  %impl_.i.i = getelementptr inbounds i8, ptr %3, i64 8
  %4 = load ptr, ptr %impl_.i.i, align 8
  %cmp.not.i.i.i = icmp eq ptr %4, null
  br i1 %cmp.not.i.i.i, label %_ZN5arrow2io20TransformInputStreamD1Ev.exit, label %_ZNKSt14default_deleteIN5arrow2io20TransformInputStream4ImplEEclEPS3_.exit.i.i.i

_ZNKSt14default_deleteIN5arrow2io20TransformInputStream4ImplEEclEPS3_.exit.i.i.i: ; preds = %entry
  tail call void @_ZN5arrow2io20TransformInputStream4ImplD2Ev(ptr noundef nonnull align 8 dereferenceable(73) %4) #19
  tail call void @_ZdlPv(ptr noundef nonnull %4) #20
  br label %_ZN5arrow2io20TransformInputStreamD1Ev.exit

_ZN5arrow2io20TransformInputStreamD1Ev.exit:      ; preds = %entry, %_ZNKSt14default_deleteIN5arrow2io20TransformInputStream4ImplEEclEPS3_.exit.i.i.i
  store ptr null, ptr %impl_.i.i, align 8
  tail call void @_ZN5arrow2io13FileInterfaceD2Ev(ptr noundef nonnull align 8 dereferenceable(28) %add.ptr.i.i) #19
  ret void
}